target datalayout = "e-m:e-p270:32:32-p271:32:32-p272:64:64-i64:64-i128:128-f80:128-n8:16:32:64-S128"
target triple = "x86_64-pc-linux-gnu"

%struct._lv_menu_t = type { %struct._lv_obj_t, ptr, ptr, ptr, ptr, ptr, ptr, ptr, ptr, ptr, ptr, ptr, ptr, %struct.lv_ll_t, i8, i8, i8 }
%struct._lv_obj_t = type { ptr, ptr, ptr, ptr, ptr, %struct.lv_area_t, i32, i16, i16 }
%struct.lv_area_t = type { i32, i32, i32, i32 }
%struct.lv_ll_t = type { i32, ptr, ptr }
%struct._lv_menu_load_page_event_data_t = type { ptr, ptr }

; Function Attrs: nounwind uwtable
define void @lv_menu_clear_history(ptr noundef %0) #0 {
  %2 = alloca ptr, align 8
  %3 = alloca ptr, align 8
  %4 = alloca ptr, align 8
  store ptr %0, ptr %2, align 8, !tbaa !3
  br label %5

5:                                                ; preds = %1
  br label %6

6:                                                ; preds = %5
  call void @llvm.lifetime.start.p0(i64 8, ptr %3) #3
  %7 = load ptr, ptr %2, align 8, !tbaa !3
  store ptr %7, ptr %3, align 8, !tbaa !3
  call void @llvm.lifetime.start.p0(i64 8, ptr %4) #3
  %8 = load ptr, ptr %3, align 8, !tbaa !3
  %9 = getelementptr inbounds nuw %struct._lv_menu_t, ptr %8, i32 0, i32 13
  store ptr %9, ptr %4, align 8, !tbaa !3
  %10 = load ptr, ptr %4, align 8, !tbaa !3
  call void @lv_ll_clear(ptr noundef %10)
  %11 = load ptr, ptr %3, align 8, !tbaa !3
  %12 = getelementptr inbounds nuw %struct._lv_menu_t, ptr %11, i32 0, i32 14
  store i8 0, ptr %12, align 8, !tbaa !7
  call void @llvm.lifetime.end.p0(i64 8, ptr %4) #3
  call void @llvm.lifetime.end.p0(i64 8, ptr %3) #3
  ret void
}

; Function Attrs: nounwind uwtable
define internal void @lv_menu_load_page_event_cb(ptr noundef %0) #0 {
  %2 = alloca ptr, align 8
  %3 = alloca ptr, align 8
  %4 = alloca ptr, align 8
  %5 = alloca ptr, align 8
  %6 = alloca ptr, align 8
  %7 = alloca i8, align 1
  %8 = alloca ptr, align 8
  store ptr %0, ptr %2, align 8, !tbaa !3
  call void @llvm.lifetime.start.p0(i64 8, ptr %3) #3
  %9 = load ptr, ptr %2, align 8, !tbaa !3
  %10 = call ptr @lv_event_get_current_target(ptr noundef %9)
  store ptr %10, ptr %3, align 8, !tbaa !3
  call void @llvm.lifetime.start.p0(i64 8, ptr %4) #3
  %11 = load ptr, ptr %2, align 8, !tbaa !3
  %12 = call ptr @lv_event_get_user_data(ptr noundef %11)
  store ptr %12, ptr %4, align 8, !tbaa !3
  call void @llvm.lifetime.start.p0(i64 8, ptr %5) #3
  %13 = load ptr, ptr %4, align 8, !tbaa !3
  %14 = getelementptr inbounds nuw %struct._lv_menu_load_page_event_data_t, ptr %13, i32 0, i32 0
  %15 = load ptr, ptr %14, align 8, !tbaa !38
  store ptr %15, ptr %5, align 8, !tbaa !3
  call void @llvm.lifetime.start.p0(i64 8, ptr %6) #3
  %16 = load ptr, ptr %4, align 8, !tbaa !3
  %17 = getelementptr inbounds nuw %struct._lv_menu_load_page_event_data_t, ptr %16, i32 0, i32 1
  %18 = load ptr, ptr %17, align 8, !tbaa !40
  store ptr %18, ptr %6, align 8, !tbaa !3
  %19 = load ptr, ptr %5, align 8, !tbaa !3
  %20 = getelementptr inbounds nuw %struct._lv_menu_t, ptr %19, i32 0, i32 8
  %21 = load ptr, ptr %20, align 8, !tbaa !20
  %22 = icmp ne ptr %21, null
  br i1 %22, label %23, label %67

23:                                               ; preds = %1
  call void @llvm.lifetime.start.p0(i64 1, ptr %7) #3
  store i8 0, ptr %7, align 1, !tbaa !41
  call void @llvm.lifetime.start.p0(i64 8, ptr %8) #3
  %24 = load ptr, ptr %3, align 8, !tbaa !3
  store ptr %24, ptr %8, align 8, !tbaa !3
  br label %25

25:                                               ; preds = %40, %23
  %26 = load ptr, ptr %8, align 8, !tbaa !3
  %27 = icmp ne ptr %26, null
  br i1 %27, label %28, label %43

28:                                               ; preds = %25
  %29 = load ptr, ptr %8, align 8, !tbaa !3
  %30 = load ptr, ptr %5, align 8, !tbaa !3
  %31 = icmp eq ptr %29, %30
  br i1 %31, label %32, label %33

32:                                               ; preds = %28
  br label %43

33:                                               ; preds = %28
  %34 = load ptr, ptr %8, align 8, !tbaa !3
  %35 = load ptr, ptr %5, align 8, !tbaa !3
  %36 = getelementptr inbounds nuw %struct._lv_menu_t, ptr %35, i32 0, i32 7
  %37 = load ptr, ptr %36, align 8, !tbaa !16
  %38 = icmp eq ptr %34, %37
  br i1 %38, label %39, label %40

39:                                               ; preds = %33
  store i8 1, ptr %7, align 1, !tbaa !41
  br label %43

40:                                               ; preds = %33
  %41 = load ptr, ptr %8, align 8, !tbaa !3
  %42 = call ptr @lv_obj_get_parent(ptr noundef %41)
  store ptr %42, ptr %8, align 8, !tbaa !3
  br label %25, !llvm.loop !42

43:                                               ; preds = %39, %32, %25
  %44 = load i8, ptr %7, align 1, !tbaa !41, !range !30, !noundef !31
  %45 = trunc i8 %44 to i1
  br i1 %45, label %46, label %66

46:                                               ; preds = %43
  %47 = load ptr, ptr %5, align 8, !tbaa !3
  %48 = getelementptr inbounds nuw %struct._lv_menu_t, ptr %47, i32 0, i32 12
  %49 = load ptr, ptr %48, align 8, !tbaa !26
  %50 = load ptr, ptr %3, align 8, !tbaa !3
  %51 = icmp ne ptr %49, %50
  br i1 %51, label %52, label %61

52:                                               ; preds = %46
  %53 = load ptr, ptr %5, align 8, !tbaa !3
  %54 = getelementptr inbounds nuw %struct._lv_menu_t, ptr %53, i32 0, i32 12
  %55 = load ptr, ptr %54, align 8, !tbaa !26
  %56 = icmp ne ptr %55, null
  br i1 %56, label %57, label %61

57:                                               ; preds = %52
  %58 = load ptr, ptr %5, align 8, !tbaa !3
  %59 = getelementptr inbounds nuw %struct._lv_menu_t, ptr %58, i32 0, i32 12
  %60 = load ptr, ptr %59, align 8, !tbaa !26
  call void @lv_obj_remove_state(ptr noundef %60, i16 noundef zeroext 1)
  br label %61

61:                                               ; preds = %57, %52, %46
  %62 = load ptr, ptr %5, align 8, !tbaa !3
  call void @lv_menu_clear_history(ptr noundef %62)
  %63 = load ptr, ptr %3, align 8, !tbaa !3
  %64 = load ptr, ptr %5, align 8, !tbaa !3
  %65 = getelementptr inbounds nuw %struct._lv_menu_t, ptr %64, i32 0, i32 12
  store ptr %63, ptr %65, align 8, !tbaa !26
  br label %66

66:                                               ; preds = %61, %43
  call void @llvm.lifetime.end.p0(i64 8, ptr %8) #3
  call void @llvm.lifetime.end.p0(i64 1, ptr %7) #3
  br label %67

67:                                               ; preds = %66, %1
  %68 = load ptr, ptr %5, align 8, !tbaa !3
  %69 = load ptr, ptr %6, align 8, !tbaa !3
  call void @lv_menu_set_page(ptr noundef %68, ptr noundef %69)
  %70 = call ptr @lv_group_get_default()
  %71 = icmp ne ptr %70, null
  br i1 %71, label %72, label %79

72:                                               ; preds = %67
  %73 = load ptr, ptr %5, align 8, !tbaa !3
  %74 = getelementptr inbounds nuw %struct._lv_menu_t, ptr %73, i32 0, i32 8
  %75 = load ptr, ptr %74, align 8, !tbaa !20
  %76 = icmp eq ptr %75, null
  br i1 %76, label %77, label %79

77:                                               ; preds = %72
  %78 = call ptr @lv_group_get_default()
  call void @lv_group_focus_next(ptr noundef %78)
  br label %79

79:                                               ; preds = %77, %72, %67
  call void @llvm.lifetime.end.p0(i64 8, ptr %6) #3
  call void @llvm.lifetime.end.p0(i64 8, ptr %5) #3
  call void @llvm.lifetime.end.p0(i64 8, ptr %4) #3
  call void @llvm.lifetime.end.p0(i64 8, ptr %3) #3
  ret void
}