; Function Attrs: nounwind uwtable
define internal void @lv_menu_load_page_event_cb(ptr noundef %0) #0 {
  %2 = tail call ptr @lv_event_get_current_target(ptr noundef %0) #4
  %3 = tail call ptr @lv_event_get_user_data(ptr noundef %0) #4
  %4 = load ptr, ptr %3, align 8, !tbaa !36
  %5 = getelementptr inbounds nuw i8, ptr %3, i64 8
  %6 = load ptr, ptr %5, align 8, !tbaa !38
  %7 = getelementptr inbounds nuw i8, ptr %4, i64 120
  %8 = load ptr, ptr %7, align 8, !tbaa !29
  %.not = icmp eq ptr %8, null
  br i1 %.not, label %.critedge, label %.preheader

.preheader:                                       ; preds = %1
  %.not2530 = icmp eq ptr %2, null
  %9 = icmp eq ptr %2, %4
  %or.cond31 = or i1 %.not2530, %9
  br i1 %or.cond31, label %.critedge, label %.lr.ph

.lr.ph:                                           ; preds = %.preheader
  %10 = getelementptr inbounds nuw i8, ptr %4, i64 112
  br label %11

11:                                               ; preds = %.lr.ph, %14
  %.032 = phi ptr [ %2, %.lr.ph ], [ %15, %14 ]
  %12 = load ptr, ptr %10, align 8, !tbaa !31
  %13 = icmp eq ptr %.032, %12
  br i1 %13, label %17, label %14

14:                                               ; preds = %11
  %15 = tail call ptr @lv_obj_get_parent(ptr noundef nonnull %.032) #4
  %.not25 = icmp eq ptr %15, null
  %16 = icmp eq ptr %15, %4
  %or.cond = or i1 %.not25, %16
  br i1 %or.cond, label %.critedge, label %11, !llvm.loop !39

17:                                               ; preds = %11
  %18 = getelementptr inbounds nuw i8, ptr %4, i64 152
  %19 = load ptr, ptr %18, align 8, !tbaa !20
  %.not26 = icmp eq ptr %19, %2
  %.not27 = icmp eq ptr %19, null
  %or.cond29 = or i1 %.not26, %.not27
  br i1 %or.cond29, label %21, label %20

20:                                               ; preds = %17
  tail call void @lv_obj_remove_state(ptr noundef nonnull %19, i16 noundef zeroext 1) #4
  br label %21

21:                                               ; preds = %20, %17
  %22 = getelementptr inbounds nuw i8, ptr %4, i64 160
  tail call void @lv_ll_clear(ptr noundef nonnull %22) #4
  %23 = getelementptr inbounds nuw i8, ptr %4, i64 184
  store i8 0, ptr %23, align 8, !tbaa !3
  store ptr %2, ptr %18, align 8, !tbaa !20
  br label %.critedge

.critedge:                                        ; preds = %14, %.preheader, %21, %1
  tail call void @lv_menu_set_page(ptr noundef nonnull %4, ptr noundef %6)
  %24 = tail call ptr @lv_group_get_default() #4
  %.not28 = icmp eq ptr %24, null
  br i1 %.not28, label %30, label %25

25:                                               ; preds = %.critedge
  %26 = load ptr, ptr %7, align 8, !tbaa !29
  %27 = icmp eq ptr %26, null
  br i1 %27, label %28, label %30

28:                                               ; preds = %25
  %29 = tail call ptr @lv_group_get_default() #4
  tail call void @lv_group_focus_next(ptr noundef %29) #4
  br label %30

30:                                               ; preds = %28, %25, %.critedge
  ret void
}